target datalayout = "e-m:e-p270:32:32-p271:32:32-p272:64:64-i64:64-i128:128-f80:128-n8:16:32:64-S128"
target triple = "x86_64-pc-linux-gnu"

%"class.arrow::SmallBasicDecimal.6" = type { i64 }

; Function Attrs: mustprogress nounwind uwtable
define noundef nonnull align 8 dereferenceable(8) ptr @_ZN5arrow14BasicDecimal64rSEj(ptr noundef nonnull align 8 dereferenceable(8) %0, i32 noundef %1) #0 align 2 {
  %3 = alloca ptr, align 8
  %4 = alloca i32, align 4
  store ptr %0, ptr %3, align 8, !tbaa !92
  store i32 %1, ptr %4, align 4, !tbaa !30
  %5 = load ptr, ptr %3, align 8
  %6 = load i32, ptr %4, align 4, !tbaa !30
  %7 = icmp ne i32 %6, 0
  br i1 %7, label %8, label %20

8:                                                ; preds = %2
  %9 = load i32, ptr %4, align 4, !tbaa !30
  %10 = icmp ult i32 %9, 64
  br i1 %10, label %11, label %17

11:                                               ; preds = %8
  %12 = load i32, ptr %4, align 4, !tbaa !30
  %13 = getelementptr inbounds nuw %"class.arrow::SmallBasicDecimal.6", ptr %5, i32 0, i32 0
  %14 = load i64, ptr %13, align 8, !tbaa !36
  %15 = zext i32 %12 to i64
  %16 = ashr i64 %14, %15
  store i64 %16, ptr %13, align 8, !tbaa !36
  br label %19

17:                                               ; preds = %8
  %18 = getelementptr inbounds nuw %"class.arrow::SmallBasicDecimal.6", ptr %5, i32 0, i32 0
  store i64 0, ptr %18, align 8, !tbaa !36
  br label %19

19:                                               ; preds = %17, %11
  br label %20

20:                                               ; preds = %19, %2
  ret ptr %5
}