; Function Attrs: mustprogress nofree norecurse nosync nounwind willreturn memory(argmem: readwrite) uwtable
define noundef nonnull align 8 dereferenceable(8) ptr @_ZN5arrow14BasicDecimal64rSEj(ptr noundef nonnull returned align 8 captures(ret: address, provenance) dereferenceable(8) %0, i32 noundef %1) local_unnamed_addr #5 align 2 {
  %.not = icmp eq i32 %1, 0
  br i1 %.not, label %7, label %.sink.split

.sink.split:                                      ; preds = %2
  %3 = icmp ult i32 %1, 64
  %4 = load i64, ptr %0, align 8
  %5 = zext nneg i32 %1 to i64
  %6 = ashr i64 %4, %5
  %.sink = select i1 %3, i64 %6, i64 0
  store i64 %.sink, ptr %0, align 8, !tbaa !13
  br label %7

7:                                                ; preds = %.sink.split, %2
  ret ptr %0
}